target datalayout = "e-m:e-p270:32:32-p271:32:32-p272:64:64-i64:64-i128:128-f80:128-n8:16:32:64-S128"
target triple = "x86_64-pc-linux-gnu"

%struct.VuDev = type { i32, i32, ptr, ptr, %struct.VuDevInflightInfo, i32, %union.pthread_mutex_t, i32, i64, ptr, i64, i64, i8, i16, ptr, ptr, ptr, ptr, ptr, i32, i8 }
%struct.VuDevInflightInfo = type { i32, ptr, i64 }
%union.pthread_mutex_t = type { %struct.__pthread_mutex_s }
%struct.__pthread_mutex_s = type { i32, i32, i32, i32, i32, i16, i16, %struct.__pthread_internal_list }
%struct.__pthread_internal_list = type { ptr, ptr }
%struct.VuVirtq = type { %struct.VuRing, ptr, ptr, i16, i64, i16, i16, i16, i16, i8, i8, i32, ptr, i32, i32, i32, i32, i8, %struct.vhost_vring_addr }
%struct.VuRing = type { i32, ptr, ptr, ptr, i64, i32 }
%struct.vhost_vring_addr = type { i32, i32, i64, i64, i64, i64 }

@.str.51 = private unnamed_addr constant [24 x i8] c"kick eventfd_read(): %s\00", align 1

; Function Attrs: nounwind uwtable
define internal void @vu_kick_cb(ptr noundef %0, i32 noundef %1, ptr noundef %2) #0 {
  %4 = alloca ptr, align 8
  %5 = alloca i32, align 4
  %6 = alloca ptr, align 8
  %7 = alloca i32, align 4
  %8 = alloca ptr, align 8
  %9 = alloca i32, align 4
  %10 = alloca i64, align 8
  %11 = alloca i64, align 8
  store ptr %0, ptr %4, align 8
  store i32 %1, ptr %5, align 4
  store ptr %2, ptr %6, align 8
  call void @llvm.lifetime.start.p0(i64 4, ptr %7) #13
  %12 = load ptr, ptr %6, align 8
  %13 = ptrtoint ptr %12 to i64
  %14 = trunc i64 %13 to i32
  store i32 %14, ptr %7, align 4
  call void @llvm.lifetime.start.p0(i64 8, ptr %8) #13
  %15 = load ptr, ptr %4, align 8
  %16 = getelementptr inbounds nuw %struct.VuDev, ptr %15, i32 0, i32 3
  %17 = load ptr, ptr %16, align 8
  %18 = load i32, ptr %7, align 4
  %19 = sext i32 %18 to i64
  %20 = getelementptr inbounds %struct.VuVirtq, ptr %17, i64 %19
  store ptr %20, ptr %8, align 8
  call void @llvm.lifetime.start.p0(i64 4, ptr %9) #13
  %21 = load ptr, ptr %8, align 8
  %22 = getelementptr inbounds nuw %struct.VuVirtq, ptr %21, i32 0, i32 14
  %23 = load i32, ptr %22, align 4
  store i32 %23, ptr %9, align 4
  call void @llvm.lifetime.start.p0(i64 8, ptr %10) #13
  store i64 0, ptr %10, align 8, !annotation !4
  call void @llvm.lifetime.start.p0(i64 8, ptr %11) #13
  store i64 0, ptr %11, align 8, !annotation !4
  %24 = load i32, ptr %9, align 4
  %25 = call i32 @eventfd_read(i32 noundef %24, ptr noundef %10)
  %26 = sext i32 %25 to i64
  store i64 %26, ptr %11, align 8
  %27 = load i64, ptr %11, align 8
  %28 = icmp eq i64 %27, -1
  br i1 %28, label %29, label %46

29:                                               ; preds = %3
  %30 = load ptr, ptr %4, align 8
  %31 = call ptr @__errno_location() #14
  %32 = load i32, ptr %31, align 4
  %33 = call ptr @strerror(i32 noundef %32) #13
  call void (ptr, ptr, ...) @vu_panic(ptr noundef %30, ptr noundef @.str.51, ptr noundef %33)
  %34 = load ptr, ptr %4, align 8
  %35 = getelementptr inbounds nuw %struct.VuDev, ptr %34, i32 0, i32 16
  %36 = load ptr, ptr %35, align 8
  %37 = load ptr, ptr %4, align 8
  %38 = load ptr, ptr %4, align 8
  %39 = getelementptr inbounds nuw %struct.VuDev, ptr %38, i32 0, i32 3
  %40 = load ptr, ptr %39, align 8
  %41 = load i32, ptr %7, align 4
  %42 = sext i32 %41 to i64
  %43 = getelementptr inbounds %struct.VuVirtq, ptr %40, i64 %42
  %44 = getelementptr inbounds nuw %struct.VuVirtq, ptr %43, i32 0, i32 14
  %45 = load i32, ptr %44, align 4
  call void %36(ptr noundef %37, i32 noundef %45)
  br label %61

46:                                               ; preds = %3
  br label %47

47:                                               ; preds = %46
  br label %48

48:                                               ; preds = %47
  br label %49

49:                                               ; preds = %48
  %50 = load ptr, ptr %8, align 8
  %51 = getelementptr inbounds nuw %struct.VuVirtq, ptr %50, i32 0, i32 12
  %52 = load ptr, ptr %51, align 8
  %53 = icmp ne ptr %52, null
  br i1 %53, label %54, label %60

54:                                               ; preds = %49
  %55 = load ptr, ptr %8, align 8
  %56 = getelementptr inbounds nuw %struct.VuVirtq, ptr %55, i32 0, i32 12
  %57 = load ptr, ptr %56, align 8
  %58 = load ptr, ptr %4, align 8
  %59 = load i32, ptr %7, align 4
  call void %57(ptr noundef %58, i32 noundef %59)
  br label %60

60:                                               ; preds = %54, %49
  br label %61

61:                                               ; preds = %60, %29
  call void @llvm.lifetime.end.p0(i64 8, ptr %11) #13
  call void @llvm.lifetime.end.p0(i64 8, ptr %10) #13
  call void @llvm.lifetime.end.p0(i64 4, ptr %9) #13
  call void @llvm.lifetime.end.p0(i64 8, ptr %8) #13
  call void @llvm.lifetime.end.p0(i64 4, ptr %7) #13
  ret void
}