; Function Attrs: nounwind uwtable
define internal void @vu_kick_cb(ptr noundef %0, i32 %1, ptr noundef %2) #3 {
  %4 = alloca i64, align 8
  %5 = ptrtoint ptr %2 to i64
  %6 = trunc i64 %5 to i32
  %7 = getelementptr inbounds nuw i8, ptr %0, i64 16
  %8 = load ptr, ptr %7, align 8
  %sext = shl i64 %5, 32
  %9 = ashr exact i64 %sext, 32
  %10 = getelementptr inbounds %struct.VuVirtq, ptr %8, i64 %9
  %11 = getelementptr inbounds nuw i8, ptr %10, i64 108
  %12 = load i32, ptr %11, align 4
  call void @llvm.lifetime.start.p0(i64 8, ptr nonnull %4) #21
  store i64 0, ptr %4, align 8, !annotation !4
  %13 = call i32 @eventfd_read(i32 noundef %12, ptr noundef nonnull %4) #21
  %14 = icmp eq i32 %13, -1
  br i1 %14, label %15, label %24

15:                                               ; preds = %3
  %16 = tail call ptr @__errno_location() #22
  %17 = load i32, ptr %16, align 4
  %18 = call ptr @strerror(i32 noundef %17) #21
  call void (ptr, ptr, ...) @vu_panic(ptr noundef nonnull %0, ptr noundef nonnull @.str.51, ptr noundef %18)
  %19 = getelementptr inbounds nuw i8, ptr %0, i64 160
  %20 = load ptr, ptr %19, align 8
  %21 = load ptr, ptr %7, align 8
  %22 = getelementptr inbounds %struct.VuVirtq, ptr %21, i64 %9, i32 14
  %23 = load i32, ptr %22, align 4
  call void %20(ptr noundef nonnull %0, i32 noundef %23) #21
  br label %28

24:                                               ; preds = %3
  %25 = getelementptr inbounds nuw i8, ptr %10, i64 96
  %26 = load ptr, ptr %25, align 8
  %.not = icmp eq ptr %26, null
  br i1 %.not, label %28, label %27

27:                                               ; preds = %24
  call void %26(ptr noundef nonnull %0, i32 noundef %6) #21
  br label %28

28:                                               ; preds = %24, %27, %15
  call void @llvm.lifetime.end.p0(i64 8, ptr nonnull %4) #21
  ret void
}